; ModuleID = '25/49.cpp'
source_filename = "25/49.cpp"
target datalayout = "e-m:e-p270:32:32-p271:32:32-p272:64:64-i64:64-f80:128-n8:16:32:64-S128"
target triple = "x86_64-pc-linux-gnu"

%"class.std::ios_base::Init" = type { i8 }
%"class.std::basic_istream" = type { i32 (...)**, i64, %"class.std::basic_ios" }
%"class.std::basic_ios" = type { %"class.std::ios_base", %"class.std::basic_ostream"*, i8, i8, %"class.std::basic_streambuf"*, %"class.std::ctype"*, %"class.std::num_put"*, %"class.std::num_get"* }
%"class.std::ios_base" = type { i32 (...)**, i64, i64, i32, i32, i32, %"struct.std::ios_base::_Callback_list"*, %"struct.std::ios_base::_Words", [8 x %"struct.std::ios_base::_Words"], i32, %"struct.std::ios_base::_Words"*, %"class.std::locale" }
%"struct.std::ios_base::_Callback_list" = type { %"struct.std::ios_base::_Callback_list"*, void (i32, %"class.std::ios_base"*, i32)*, i32, i32 }
%"struct.std::ios_base::_Words" = type { i8*, i64 }
%"class.std::locale" = type { %"class.std::locale::_Impl"* }
%"class.std::locale::_Impl" = type { i32, %"class.std::locale::facet"**, i64, %"class.std::locale::facet"**, i8** }
%"class.std::locale::facet" = type <{ i32 (...)**, i32, [4 x i8] }>
%"class.std::basic_ostream" = type { i32 (...)**, %"class.std::basic_ios" }
%"class.std::basic_streambuf" = type { i32 (...)**, i8*, i8*, i8*, i8*, i8*, i8*, %"class.std::locale" }
%"class.std::ctype" = type <{ %"class.std::locale::facet.base", [4 x i8], %struct.__locale_struct*, i8, [7 x i8], i32*, i32*, i16*, i8, [256 x i8], [256 x i8], i8, [6 x i8] }>
%"class.std::locale::facet.base" = type <{ i32 (...)**, i32 }>
%struct.__locale_struct = type { [13 x %struct.__locale_data*], i16*, i32*, i32*, [13 x i8*] }
%struct.__locale_data = type opaque
%"class.std::num_put" = type { %"class.std::locale::facet.base", [4 x i8] }
%"class.std::num_get" = type { %"class.std::locale::facet.base", [4 x i8] }

@_ZStL8__ioinit = internal global %"class.std::ios_base::Init" zeroinitializer, align 1
@__dso_handle = external hidden global i8
@__const.main.sum = private unnamed_addr constant <{ [10 x i32], [30 x i32] }> <{ [10 x i32] [i32 8, i32 4, i32 6, i32 3, i32 8, i32 4, i32 7, i32 4, i32 1, i32 2], [30 x i32] zeroinitializer }>, align 16
@_ZSt3cin = external dso_local global %"class.std::basic_istream", align 8
@_ZSt4cout = external dso_local global %"class.std::basic_ostream", align 8
@llvm.global_ctors = appending global [1 x { i32, void ()*, i8* }] [{ i32, void ()*, i8* } { i32 65535, void ()* @_GLOBAL__sub_I_49.cpp, i8* null }]

; Function Attrs: noinline uwtable
define internal void @__cxx_global_var_init() #0 section ".text.startup" {
  call void @_ZNSt8ios_base4InitC1Ev(%"class.std::ios_base::Init"* @_ZStL8__ioinit)
  %1 = call i32 @__cxa_atexit(void (i8*)* bitcast (void (%"class.std::ios_base::Init"*)* @_ZNSt8ios_base4InitD1Ev to void (i8*)*), i8* getelementptr inbounds (%"class.std::ios_base::Init", %"class.std::ios_base::Init"* @_ZStL8__ioinit, i32 0, i32 0), i8* @__dso_handle) #3
  ret void
}

declare dso_local void @_ZNSt8ios_base4InitC1Ev(%"class.std::ios_base::Init"*) unnamed_addr #1

; Function Attrs: nounwind
declare dso_local void @_ZNSt8ios_base4InitD1Ev(%"class.std::ios_base::Init"*) unnamed_addr #2

; Function Attrs: nounwind
declare dso_local i32 @__cxa_atexit(void (i8*)*, i8*, i8*) #3

; Function Attrs: noinline norecurse uwtable
define dso_local i32 @main() #4 {
  %1 = alloca i32, align 4
  %2 = alloca i32, align 4
  %3 = alloca i32, align 4
  %4 = alloca i32, align 4
  %5 = alloca i32, align 4
  %6 = alloca [40 x i32], align 16
  store i32 0, i32* %1, align 4
  %7 = bitcast [40 x i32]* %6 to i8*
  call void @llvm.memcpy.p0i8.p0i8.i64(i8* align 16 %7, i8* align 16 bitcast (<{ [10 x i32], [30 x i32] }>* @__const.main.sum to i8*), i64 160, i1 false)
  %8 = call dereferenceable(280) %"class.std::basic_istream"* @_ZNSirsERi(%"class.std::basic_istream"* @_ZSt3cin, i32* dereferenceable(4) %2)
  %9 = load i32, i32* %2, align 4
  %10 = icmp sle i32 %9, 31
  br i1 %10, label %11, label %25

11:                                               ; preds = %0
  store i32 1, i32* %5, align 4
  store i32 1, i32* %3, align 4
  br label %12

12:                                               ; preds = %19, %11
  %13 = load i32, i32* %3, align 4
  %14 = load i32, i32* %2, align 4
  %15 = icmp sle i32 %13, %14
  br i1 %15, label %16, label %22

16:                                               ; preds = %12
  %17 = load i32, i32* %5, align 4
  %18 = mul i32 %17, 2
  store i32 %18, i32* %5, align 4
  br label %19

19:                                               ; preds = %16
  %20 = load i32, i32* %3, align 4
  %21 = add nsw i32 %20, 1
  store i32 %21, i32* %3, align 4
  br label %12

22:                                               ; preds = %12
  %23 = load i32, i32* %5, align 4
  %24 = call dereferenceable(272) %"class.std::basic_ostream"* @_ZNSolsEj(%"class.std::basic_ostream"* @_ZSt4cout, i32 %23)
  br label %107

25:                                               ; preds = %0
  store i32 1, i32* %3, align 4
  br label %26

26:                                               ; preds = %79, %25
  %27 = load i32, i32* %3, align 4
  %28 = load i32, i32* %2, align 4
  %29 = sub nsw i32 %28, 31
  %30 = icmp sle i32 %27, %29
  br i1 %30, label %31, label %82

31:                                               ; preds = %26
  store i32 0, i32* %4, align 4
  br label %32

32:                                               ; preds = %44, %31
  %33 = load i32, i32* %4, align 4
  %34 = icmp slt i32 %33, 39
  br i1 %34, label %35, label %47

35:                                               ; preds = %32
  %36 = load i32, i32* %4, align 4
  %37 = sext i32 %36 to i64
  %38 = getelementptr inbounds [40 x i32], [40 x i32]* %6, i64 0, i64 %37
  %39 = load i32, i32* %38, align 4
  %40 = mul nsw i32 %39, 2
  %41 = load i32, i32* %4, align 4
  %42 = sext i32 %41 to i64
  %43 = getelementptr inbounds [40 x i32], [40 x i32]* %6, i64 0, i64 %42
  store i32 %40, i32* %43, align 4
  br label %44

44:                                               ; preds = %35
  %45 = load i32, i32* %4, align 4
  %46 = add nsw i32 %45, 1
  store i32 %46, i32* %4, align 4
  br label %32

47:                                               ; preds = %32
  store i32 0, i32* %4, align 4
  br label %48

48:                                               ; preds = %75, %47
  %49 = load i32, i32* %4, align 4
  %50 = icmp sle i32 %49, 39
  br i1 %50, label %51, label %78

51:                                               ; preds = %48
  %52 = load i32, i32* %4, align 4
  %53 = sext i32 %52 to i64
  %54 = getelementptr inbounds [40 x i32], [40 x i32]* %6, i64 0, i64 %53
  %55 = load i32, i32* %54, align 4
  %56 = sdiv i32 %55, 10
  %57 = load i32, i32* %4, align 4
  %58 = add nsw i32 %57, 1
  %59 = sext i32 %58 to i64
  %60 = getelementptr inbounds [40 x i32], [40 x i32]* %6, i64 0, i64 %59
  %61 = load i32, i32* %60, align 4
  %62 = add nsw i32 %56, %61
  %63 = load i32, i32* %4, align 4
  %64 = add nsw i32 %63, 1
  %65 = sext i32 %64 to i64
  %66 = getelementptr inbounds [40 x i32], [40 x i32]* %6, i64 0, i64 %65
  store i32 %62, i32* %66, align 4
  %67 = load i32, i32* %4, align 4
  %68 = sext i32 %67 to i64
  %69 = getelementptr inbounds [40 x i32], [40 x i32]* %6, i64 0, i64 %68
  %70 = load i32, i32* %69, align 4
  %71 = srem i32 %70, 10
  %72 = load i32, i32* %4, align 4
  %73 = sext i32 %72 to i64
  %74 = getelementptr inbounds [40 x i32], [40 x i32]* %6, i64 0, i64 %73
  store i32 %71, i32* %74, align 4
  br label %75

75:                                               ; preds = %51
  %76 = load i32, i32* %4, align 4
  %77 = add nsw i32 %76, 1
  store i32 %77, i32* %4, align 4
  br label %48

78:                                               ; preds = %48
  br label %79

79:                                               ; preds = %78
  %80 = load i32, i32* %3, align 4
  %81 = add nsw i32 %80, 1
  store i32 %81, i32* %3, align 4
  br label %26

82:                                               ; preds = %26
  store i32 39, i32* %3, align 4
  br label %83

83:                                               ; preds = %89, %82
  %84 = load i32, i32* %3, align 4
  %85 = sext i32 %84 to i64
  %86 = getelementptr inbounds [40 x i32], [40 x i32]* %6, i64 0, i64 %85
  %87 = load i32, i32* %86, align 4
  %88 = icmp eq i32 %87, 0
  br i1 %88, label %89, label %92

89:                                               ; preds = %83
  %90 = load i32, i32* %3, align 4
  %91 = add nsw i32 %90, -1
  store i32 %91, i32* %3, align 4
  br label %83

92:                                               ; preds = %83
  %93 = load i32, i32* %3, align 4
  store i32 %93, i32* %4, align 4
  br label %94

94:                                               ; preds = %103, %92
  %95 = load i32, i32* %4, align 4
  %96 = icmp sge i32 %95, 0
  br i1 %96, label %97, label %106

97:                                               ; preds = %94
  %98 = load i32, i32* %4, align 4
  %99 = sext i32 %98 to i64
  %100 = getelementptr inbounds [40 x i32], [40 x i32]* %6, i64 0, i64 %99
  %101 = load i32, i32* %100, align 4
  %102 = call dereferenceable(272) %"class.std::basic_ostream"* @_ZNSolsEi(%"class.std::basic_ostream"* @_ZSt4cout, i32 %101)
  br label %103

103:                                              ; preds = %97
  %104 = load i32, i32* %4, align 4
  %105 = add nsw i32 %104, -1
  store i32 %105, i32* %4, align 4
  br label %94

106:                                              ; preds = %94
  br label %107

107:                                              ; preds = %106, %22
  ret i32 0
}

; Function Attrs: argmemonly nounwind willreturn
declare void @llvm.memcpy.p0i8.p0i8.i64(i8* noalias nocapture writeonly, i8* noalias nocapture readonly, i64, i1 immarg) #5

declare dso_local dereferenceable(280) %"class.std::basic_istream"* @_ZNSirsERi(%"class.std::basic_istream"*, i32* dereferenceable(4)) #1

declare dso_local dereferenceable(272) %"class.std::basic_ostream"* @_ZNSolsEj(%"class.std::basic_ostream"*, i32) #1

declare dso_local dereferenceable(272) %"class.std::basic_ostream"* @_ZNSolsEi(%"class.std::basic_ostream"*, i32) #1

; Function Attrs: noinline uwtable
define internal void @_GLOBAL__sub_I_49.cpp() #0 section ".text.startup" {
  call void @__cxx_global_var_init()
  ret void
}


!llvm.module.flags = !{!0}
!llvm.ident = !{!1}

!0 = !{i32 1, !"wchar_size", i32 4}
!1 = !{!"clang version 10.0.0-4ubuntu1 "}
